; Function Attrs: mustprogress uwtable
define hidden void @_ZN4cvc58internal11NodeManager6mkNodeENS0_4kind6Kind_tESt16initializer_listINS0_12NodeTemplateILb0EEEE(ptr noalias sret(%"class.cvc5::internal::NodeTemplate") align 8 %agg.result, ptr noundef nonnull align 8 dereferenceable(3360) %this, i32 noundef %kind, ptr readonly %children.coerce0, i64 %children.coerce1) local_unnamed_addr #3 align 2 personality ptr @__gxx_personality_v0 {
entry:
  %agg.tmp.i = alloca %"class.cvc5::internal::NodeTemplate.280", align 8
  %nb = alloca %"class.cvc5::internal::NodeBuilder", align 8
  call void @_ZN4cvc58internal11NodeBuilderC1EPNS0_11NodeManagerENS0_4kind6Kind_tE(ptr noundef nonnull align 8 dereferenceable(116) %nb, ptr noundef nonnull %this, i32 noundef %kind)
  %add.ptr.i = getelementptr inbounds %"class.cvc5::internal::NodeTemplate.280", ptr %children.coerce0, i64 %children.coerce1
  call void @llvm.lifetime.start.p0(i64 8, ptr nonnull %agg.tmp.i)
  %cmp.not3.i = icmp eq i64 %children.coerce1, 0
  br i1 %cmp.not3.i, label %invoke.cont, label %for.body.i

for.body.i:                                       ; preds = %entry, %call.i.noexc
  %i.04.i = phi ptr [ %incdec.ptr.i, %call.i.noexc ], [ %children.coerce0, %entry ]
  %0 = load ptr, ptr %i.04.i, align 8
  store ptr %0, ptr %agg.tmp.i, align 8
  %call.i1 = invoke noundef nonnull align 8 dereferenceable(116) ptr @_ZN4cvc58internal11NodeBuilder6appendENS0_12NodeTemplateILb0EEE(ptr noundef nonnull align 8 dereferenceable(116) %nb, ptr noundef nonnull %agg.tmp.i)
          to label %call.i.noexc unwind label %lpad.loopexit

call.i.noexc:                                     ; preds = %for.body.i
  %incdec.ptr.i = getelementptr inbounds i8, ptr %i.04.i, i64 8
  %cmp.not.i = icmp eq ptr %incdec.ptr.i, %add.ptr.i
  br i1 %cmp.not.i, label %invoke.cont, label %for.body.i, !llvm.loop !194

invoke.cont:                                      ; preds = %call.i.noexc, %entry
  call void @llvm.lifetime.end.p0(i64 8, ptr nonnull %agg.tmp.i)
  invoke void @_ZN4cvc58internal11NodeBuilder13constructNodeEv(ptr sret(%"class.cvc5::internal::NodeTemplate") align 8 %agg.result, ptr noundef nonnull align 8 dereferenceable(116) %nb)
          to label %invoke.cont5 unwind label %lpad.loopexit.split-lp

invoke.cont5:                                     ; preds = %invoke.cont
  call void @_ZN4cvc58internal11NodeBuilderD1Ev(ptr noundef nonnull align 8 dereferenceable(116) %nb) #7
  ret void

lpad.loopexit:                                    ; preds = %for.body.i
  %lpad.loopexit4 = landingpad { ptr, i32 }
          cleanup
  br label %lpad

lpad.loopexit.split-lp:                           ; preds = %invoke.cont
  %lpad.loopexit.split-lp5 = landingpad { ptr, i32 }
          cleanup
  br label %lpad

lpad:                                             ; preds = %lpad.loopexit.split-lp, %lpad.loopexit
  %lpad.phi = phi { ptr, i32 } [ %lpad.loopexit4, %lpad.loopexit ], [ %lpad.loopexit.split-lp5, %lpad.loopexit.split-lp ]
  call void @_ZN4cvc58internal11NodeBuilderD1Ev(ptr noundef nonnull align 8 dereferenceable(116) %nb) #7
  resume { ptr, i32 } %lpad.phi
}